target datalayout = "e-m:e-p270:32:32-p271:32:32-p272:64:64-i64:64-i128:128-f80:128-n8:16:32:64-S128"
target triple = "x86_64-pc-linux-gnu"

%"class.clang::LocationContextManager" = type { %"class.llvm::FoldingSet", i64 }
%"class.llvm::FoldingSet" = type { %"class.llvm::FoldingSetImpl" }
%"class.llvm::FoldingSetImpl" = type { %"class.llvm::FoldingSetBase" }
%"class.llvm::FoldingSetBase" = type { ptr, i32, i32 }
%"class.llvm::FoldingSetIterator" = type { %"class.llvm::FoldingSetIteratorImpl" }
%"class.llvm::FoldingSetIteratorImpl" = type { ptr }

; Function Attrs: mustprogress nounwind uwtable
define linkonce_odr hidden void @_ZN4llvm18FoldingSetIteratorIN5clang15LocationContextEEC2EPPv(ptr noundef nonnull align 8 dereferenceable(8) %0, ptr noundef %1) unnamed_addr #0 comdat align 2 {
  %3 = alloca ptr, align 8
  %4 = alloca ptr, align 8
  store ptr %0, ptr %3, align 8
  store ptr %1, ptr %4, align 8
  %5 = load ptr, ptr %3, align 8
  %6 = load ptr, ptr %4, align 8
  call void @_ZN4llvm22FoldingSetIteratorImplC2EPPv(ptr noundef nonnull align 8 dereferenceable(8) %5, ptr noundef %6)
  ret void
}

; Function Attrs: mustprogress nounwind uwtable
define linkonce_odr hidden noundef nonnull align 8 dereferenceable(8) ptr @_ZN4llvm18FoldingSetIteratorIN5clang15LocationContextEEppEv(ptr noundef nonnull align 8 dereferenceable(8) %0) #0 comdat align 2 {
  %2 = alloca ptr, align 8
  store ptr %0, ptr %2, align 8
  %3 = load ptr, ptr %2, align 8
  call void @_ZN4llvm22FoldingSetIteratorImpl7advanceEv(ptr noundef nonnull align 8 dereferenceable(8) %3)
  ret ptr %3
}

; Function Attrs: mustprogress nounwind uwtable
define linkonce_odr hidden noundef nonnull align 8 dereferenceable(48) ptr @_ZNK4llvm18FoldingSetIteratorIN5clang15LocationContextEEdeEv(ptr noundef nonnull align 8 dereferenceable(8) %0) #0 comdat align 2 {
  %2 = alloca ptr, align 8
  store ptr %0, ptr %2, align 8
  %3 = load ptr, ptr %2, align 8
  %4 = getelementptr inbounds nuw %"class.llvm::FoldingSetIteratorImpl", ptr %3, i32 0, i32 0
  %5 = load ptr, ptr %4, align 8
  %6 = icmp eq ptr %5, null
  br i1 %6, label %9, label %7

7:                                                ; preds = %1
  %8 = getelementptr inbounds i8, ptr %5, i64 -8
  br label %10

9:                                                ; preds = %1
  br label %10

10:                                               ; preds = %9, %7
  %11 = phi ptr [ %8, %7 ], [ null, %9 ]
  ret ptr %11
}

; Function Attrs: mustprogress nounwind uwtable
define linkonce_odr hidden noundef zeroext i1 @_ZNK4llvm22FoldingSetIteratorImplneERKS0_(ptr noundef nonnull align 8 dereferenceable(8) %0, ptr noundef nonnull align 8 dereferenceable(8) %1) #0 comdat align 2 {
  %3 = alloca ptr, align 8
  %4 = alloca ptr, align 8
  store ptr %0, ptr %3, align 8
  store ptr %1, ptr %4, align 8
  %5 = load ptr, ptr %3, align 8
  %6 = getelementptr inbounds nuw %"class.llvm::FoldingSetIteratorImpl", ptr %5, i32 0, i32 0
  %7 = load ptr, ptr %6, align 8
  %8 = load ptr, ptr %4, align 8
  %9 = getelementptr inbounds nuw %"class.llvm::FoldingSetIteratorImpl", ptr %8, i32 0, i32 0
  %10 = load ptr, ptr %9, align 8
  %11 = icmp ne ptr %7, %10
  ret i1 %11
}

; Function Attrs: mustprogress nounwind uwtable
define linkonce_odr hidden ptr @_ZN4llvm14FoldingSetImplINS_10FoldingSetIN5clang15LocationContextEEES3_E3endEv(ptr noundef nonnull align 8 dereferenceable(16) %0) #0 comdat align 2 {
  %2 = alloca %"class.llvm::FoldingSetIterator", align 8
  %3 = alloca ptr, align 8
  store ptr %0, ptr %3, align 8
  %4 = load ptr, ptr %3, align 8
  %5 = getelementptr inbounds nuw %"class.llvm::FoldingSetBase", ptr %4, i32 0, i32 0
  %6 = load ptr, ptr %5, align 8
  %7 = getelementptr inbounds nuw %"class.llvm::FoldingSetBase", ptr %4, i32 0, i32 1
  %8 = load i32, ptr %7, align 8
  %9 = zext i32 %8 to i64
  %10 = getelementptr inbounds ptr, ptr %6, i64 %9
  call void @_ZN4llvm18FoldingSetIteratorIN5clang15LocationContextEEC2EPPv(ptr noundef nonnull align 8 dereferenceable(8) %2, ptr noundef %10)
  %11 = getelementptr inbounds nuw %"class.llvm::FoldingSetIterator", ptr %2, i32 0, i32 0
  %12 = getelementptr inbounds nuw %"class.llvm::FoldingSetIteratorImpl", ptr %11, i32 0, i32 0
  %13 = load ptr, ptr %12, align 8
  ret ptr %13
}

; Function Attrs: mustprogress nounwind uwtable
define linkonce_odr hidden ptr @_ZN4llvm14FoldingSetImplINS_10FoldingSetIN5clang15LocationContextEEES3_E5beginEv(ptr noundef nonnull align 8 dereferenceable(16) %0) #0 comdat align 2 {
  %2 = alloca %"class.llvm::FoldingSetIterator", align 8
  %3 = alloca ptr, align 8
  store ptr %0, ptr %3, align 8
  %4 = load ptr, ptr %3, align 8
  %5 = getelementptr inbounds nuw %"class.llvm::FoldingSetBase", ptr %4, i32 0, i32 0
  %6 = load ptr, ptr %5, align 8
  call void @_ZN4llvm18FoldingSetIteratorIN5clang15LocationContextEEC2EPPv(ptr noundef nonnull align 8 dereferenceable(8) %2, ptr noundef %6)
  %7 = getelementptr inbounds nuw %"class.llvm::FoldingSetIterator", ptr %2, i32 0, i32 0
  %8 = getelementptr inbounds nuw %"class.llvm::FoldingSetIteratorImpl", ptr %7, i32 0, i32 0
  %9 = load ptr, ptr %8, align 8
  ret ptr %9
}

; Function Attrs: mustprogress nounwind uwtable
define dso_local void @_ZN5clang22LocationContextManager5clearEv(ptr noundef nonnull align 8 dereferenceable(24) %0) #0 align 2 {
  %2 = alloca ptr, align 8
  %3 = alloca %"class.llvm::FoldingSetIterator", align 8
  %4 = alloca %"class.llvm::FoldingSetIterator", align 8
  %5 = alloca ptr, align 8
  store ptr %0, ptr %2, align 8
  %6 = load ptr, ptr %2, align 8
  %7 = getelementptr inbounds nuw %"class.clang::LocationContextManager", ptr %6, i32 0, i32 0
  %8 = call ptr @_ZN4llvm14FoldingSetImplINS_10FoldingSetIN5clang15LocationContextEEES3_E5beginEv(ptr noundef nonnull align 8 dereferenceable(16) %7)
  %9 = getelementptr inbounds nuw %"class.llvm::FoldingSetIterator", ptr %3, i32 0, i32 0
  %10 = getelementptr inbounds nuw %"class.llvm::FoldingSetIteratorImpl", ptr %9, i32 0, i32 0
  store ptr %8, ptr %10, align 8
  %11 = getelementptr inbounds nuw %"class.clang::LocationContextManager", ptr %6, i32 0, i32 0
  %12 = call ptr @_ZN4llvm14FoldingSetImplINS_10FoldingSetIN5clang15LocationContextEEES3_E3endEv(ptr noundef nonnull align 8 dereferenceable(16) %11)
  %13 = getelementptr inbounds nuw %"class.llvm::FoldingSetIterator", ptr %4, i32 0, i32 0
  %14 = getelementptr inbounds nuw %"class.llvm::FoldingSetIteratorImpl", ptr %13, i32 0, i32 0
  store ptr %12, ptr %14, align 8
  br label %15

15:                                               ; preds = %26, %1
  %16 = call noundef zeroext i1 @_ZNK4llvm22FoldingSetIteratorImplneERKS0_(ptr noundef nonnull align 8 dereferenceable(8) %3, ptr noundef nonnull align 8 dereferenceable(8) %4)
  br i1 %16, label %17, label %27

17:                                               ; preds = %15
  %18 = call noundef nonnull align 8 dereferenceable(48) ptr @_ZNK4llvm18FoldingSetIteratorIN5clang15LocationContextEEdeEv(ptr noundef nonnull align 8 dereferenceable(8) %3)
  store ptr %18, ptr %5, align 8
  %19 = call noundef nonnull align 8 dereferenceable(8) ptr @_ZN4llvm18FoldingSetIteratorIN5clang15LocationContextEEppEv(ptr noundef nonnull align 8 dereferenceable(8) %3)
  %20 = load ptr, ptr %5, align 8
  %21 = icmp eq ptr %20, null
  br i1 %21, label %26, label %22

22:                                               ; preds = %17
  %23 = load ptr, ptr %20, align 8
  %24 = getelementptr inbounds ptr, ptr %23, i64 1
  %25 = load ptr, ptr %24, align 8
  call void %25(ptr noundef nonnull align 8 dereferenceable(48) %20) #12
  br label %26

26:                                               ; preds = %22, %17
  br label %15, !llvm.loop !13

27:                                               ; preds = %15
  %28 = getelementptr inbounds nuw %"class.clang::LocationContextManager", ptr %6, i32 0, i32 0
  call void @_ZN4llvm14FoldingSetBase5clearEv(ptr noundef nonnull align 8 dereferenceable(16) %28)
  ret void
}