; Function Attrs: mustprogress nounwind uwtable
define dso_local void @_ZN5clang22LocationContextManager5clearEv(ptr noundef nonnull align 8 dereferenceable(24) %0) local_unnamed_addr #0 align 2 {
  %2 = alloca %"class.llvm::FoldingSetIterator", align 8
  %3 = alloca %"class.llvm::FoldingSetIterator", align 8
  %4 = alloca %"class.llvm::FoldingSetIterator", align 8
  call void @llvm.lifetime.start.p0(i64 8, ptr nonnull %3)
  %5 = load ptr, ptr %0, align 8
  call void @_ZN4llvm22FoldingSetIteratorImplC2EPPv(ptr noundef nonnull align 8 dereferenceable(8) %3, ptr noundef %5) #22
  %6 = load ptr, ptr %3, align 8
  call void @llvm.lifetime.end.p0(i64 8, ptr nonnull %3)
  store ptr %6, ptr %4, align 8
  call void @llvm.lifetime.start.p0(i64 8, ptr nonnull %2)
  %7 = load ptr, ptr %0, align 8
  %8 = getelementptr inbounds nuw i8, ptr %0, i64 8
  %9 = load i32, ptr %8, align 8
  %10 = zext i32 %9 to i64
  %11 = getelementptr inbounds ptr, ptr %7, i64 %10
  call void @_ZN4llvm22FoldingSetIteratorImplC2EPPv(ptr noundef nonnull align 8 dereferenceable(8) %2, ptr noundef %11) #22
  %12 = load ptr, ptr %2, align 8
  call void @llvm.lifetime.end.p0(i64 8, ptr nonnull %2)
  %.not2 = icmp eq ptr %6, %12
  br i1 %.not2, label %._crit_edge, label %.lr.ph

.lr.ph:                                           ; preds = %1, %.lr.ph
  %13 = phi ptr [ %18, %.lr.ph ], [ %6, %1 ]
  %14 = getelementptr inbounds i8, ptr %13, i64 -8
  call void @_ZN4llvm22FoldingSetIteratorImpl7advanceEv(ptr noundef nonnull align 8 dereferenceable(8) %4) #22
  %15 = load ptr, ptr %14, align 8
  %16 = getelementptr inbounds i8, ptr %15, i64 8
  %17 = load ptr, ptr %16, align 8
  call void %17(ptr noundef nonnull align 8 dereferenceable(48) %14) #22
  %18 = load ptr, ptr %4, align 8
  %.not = icmp eq ptr %18, %12
  br i1 %.not, label %._crit_edge, label %.lr.ph, !llvm.loop !25

._crit_edge:                                      ; preds = %.lr.ph, %1
  call void @_ZN4llvm14FoldingSetBase5clearEv(ptr noundef nonnull align 8 dereferenceable(16) %0) #22
  ret void
}